; Function Attrs: nounwind uwtable
define internal fastcc void @BuildAndStoreCommandPrefixCode(ptr noundef initializes((7312, 8016)) %0, ptr noundef %1, ptr noundef %2) unnamed_addr #0 {
  %4 = getelementptr inbounds nuw i8, ptr %0, i64 1152
  %5 = getelementptr inbounds nuw i8, ptr %0, i64 768
  %6 = getelementptr inbounds nuw i8, ptr %0, i64 896
  %7 = getelementptr inbounds nuw i8, ptr %0, i64 7312
  %8 = getelementptr inbounds nuw i8, ptr %0, i64 8016
  tail call void @llvm.memset.p0.i64(ptr noundef nonnull align 1 dereferenceable(704) %7, i8 0, i64 704, i1 false)
  %9 = getelementptr inbounds nuw i8, ptr %0, i64 2184
  tail call void @BrotliCreateHuffmanTree(ptr noundef nonnull %4, i64 noundef 64, i32 noundef 15, ptr noundef nonnull %9, ptr noundef nonnull %5) #10
  %10 = getelementptr inbounds nuw i8, ptr %0, i64 1408
  %11 = getelementptr inbounds nuw i8, ptr %0, i64 832
  tail call void @BrotliCreateHuffmanTree(ptr noundef nonnull %10, i64 noundef 64, i32 noundef 14, ptr noundef nonnull %9, ptr noundef nonnull %11) #10
  tail call void @llvm.memcpy.p0.p0.i64(ptr noundef nonnull align 1 dereferenceable(24) %7, ptr noundef nonnull align 1 dereferenceable(24) %5, i64 24, i1 false)
  %12 = getelementptr inbounds nuw i8, ptr %0, i64 7336
  %13 = getelementptr inbounds nuw i8, ptr %0, i64 808
  %14 = load i64, ptr %13, align 1
  store i64 %14, ptr %12, align 1
  %15 = getelementptr inbounds nuw i8, ptr %0, i64 7344
  %16 = getelementptr inbounds nuw i8, ptr %0, i64 792
  %17 = load i64, ptr %16, align 1
  store i64 %17, ptr %15, align 1
  %18 = getelementptr inbounds nuw i8, ptr %0, i64 7352
  %19 = getelementptr inbounds nuw i8, ptr %0, i64 816
  %20 = load i64, ptr %19, align 1
  store i64 %20, ptr %18, align 1
  %21 = getelementptr inbounds nuw i8, ptr %0, i64 7360
  %22 = getelementptr inbounds nuw i8, ptr %0, i64 800
  %23 = load i64, ptr %22, align 1
  store i64 %23, ptr %21, align 1
  %24 = getelementptr inbounds nuw i8, ptr %0, i64 7368
  %25 = getelementptr inbounds nuw i8, ptr %0, i64 824
  %26 = load i64, ptr %25, align 1
  store i64 %26, ptr %24, align 1
  tail call void @BrotliConvertBitDepthsToSymbols(ptr noundef nonnull %7, i64 noundef 64, ptr noundef nonnull %8) #10
  tail call void @llvm.memcpy.p0.p0.i64(ptr noundef nonnull align 2 dereferenceable(48) %6, ptr noundef nonnull align 2 dereferenceable(48) %8, i64 48, i1 false)
  %27 = getelementptr inbounds nuw i8, ptr %0, i64 944
  %28 = getelementptr inbounds nuw i8, ptr %0, i64 8080
  tail call void @llvm.memcpy.p0.p0.i64(ptr noundef nonnull align 2 dereferenceable(16) %27, ptr noundef nonnull align 2 dereferenceable(16) %28, i64 16, i1 false)
  %29 = getelementptr inbounds nuw i8, ptr %0, i64 960
  %30 = getelementptr inbounds nuw i8, ptr %0, i64 8112
  tail call void @llvm.memcpy.p0.p0.i64(ptr noundef nonnull align 2 dereferenceable(16) %29, ptr noundef nonnull align 2 dereferenceable(16) %30, i64 16, i1 false)
  %31 = getelementptr inbounds nuw i8, ptr %0, i64 976
  %32 = getelementptr inbounds nuw i8, ptr %0, i64 8064
  tail call void @llvm.memcpy.p0.p0.i64(ptr noundef nonnull align 2 dereferenceable(16) %31, ptr noundef nonnull align 2 dereferenceable(16) %32, i64 16, i1 false)
  %33 = getelementptr inbounds nuw i8, ptr %0, i64 992
  %34 = getelementptr inbounds nuw i8, ptr %0, i64 8096
  tail call void @llvm.memcpy.p0.p0.i64(ptr noundef nonnull align 2 dereferenceable(16) %33, ptr noundef nonnull align 2 dereferenceable(16) %34, i64 16, i1 false)
  %35 = getelementptr inbounds nuw i8, ptr %0, i64 1008
  %36 = getelementptr inbounds nuw i8, ptr %0, i64 8128
  tail call void @llvm.memcpy.p0.p0.i64(ptr noundef nonnull align 2 dereferenceable(16) %35, ptr noundef nonnull align 2 dereferenceable(16) %36, i64 16, i1 false)
  %37 = getelementptr inbounds nuw i8, ptr %0, i64 1024
  tail call void @BrotliConvertBitDepthsToSymbols(ptr noundef nonnull %11, i64 noundef 64, ptr noundef nonnull %37) #10
  %38 = getelementptr inbounds nuw i8, ptr %0, i64 7320
  tail call void @llvm.memset.p0.i64(ptr noundef nonnull align 1 dereferenceable(64) %38, i8 0, i64 56, i1 false)
  %39 = load i64, ptr %5, align 1
  store i64 %39, ptr %7, align 1
  %40 = getelementptr inbounds nuw i8, ptr %0, i64 7376
  %41 = getelementptr inbounds nuw i8, ptr %0, i64 776
  %42 = load i64, ptr %41, align 1
  store i64 %42, ptr %40, align 1
  %43 = getelementptr inbounds nuw i8, ptr %0, i64 7440
  %44 = getelementptr inbounds nuw i8, ptr %0, i64 784
  %45 = load i64, ptr %44, align 1
  store i64 %45, ptr %43, align 1
  %46 = getelementptr inbounds nuw i8, ptr %0, i64 7504
  %47 = load i64, ptr %16, align 1
  store i64 %47, ptr %46, align 1
  %48 = getelementptr inbounds nuw i8, ptr %0, i64 7696
  %49 = load i64, ptr %22, align 1
  store i64 %49, ptr %48, align 1
  br label %50

50:                                               ; preds = %3, %50
  %.072 = phi i64 [ 0, %3 ], [ %67, %50 ]
  %51 = or disjoint i64 %.072, 40
  %52 = getelementptr inbounds nuw i8, ptr %5, i64 %51
  %53 = load i8, ptr %52, align 1, !tbaa !7
  %54 = shl nuw nsw i64 %.072, 3
  %55 = or disjoint i64 %54, 128
  %56 = getelementptr inbounds nuw i8, ptr %7, i64 %55
  store i8 %53, ptr %56, align 1, !tbaa !7
  %57 = or disjoint i64 %.072, 48
  %58 = getelementptr inbounds nuw i8, ptr %5, i64 %57
  %59 = load i8, ptr %58, align 1, !tbaa !7
  %60 = or disjoint i64 %54, 256
  %61 = getelementptr inbounds nuw i8, ptr %7, i64 %60
  store i8 %59, ptr %61, align 1, !tbaa !7
  %62 = or disjoint i64 %.072, 56
  %63 = getelementptr inbounds nuw i8, ptr %5, i64 %62
  %64 = load i8, ptr %63, align 1, !tbaa !7
  %65 = or disjoint i64 %54, 448
  %66 = getelementptr inbounds nuw i8, ptr %7, i64 %65
  store i8 %64, ptr %66, align 1, !tbaa !7
  %67 = add nuw nsw i64 %.072, 1
  %exitcond.not = icmp eq i64 %67, 8
  br i1 %exitcond.not, label %68, label %50, !llvm.loop !1301

68:                                               ; preds = %50
  tail call void @BrotliStoreHuffmanTree(ptr noundef nonnull %7, i64 noundef 704, ptr noundef nonnull %9, ptr noundef %1, ptr noundef %2) #10
  tail call void @BrotliStoreHuffmanTree(ptr noundef nonnull %11, i64 noundef 64, ptr noundef nonnull %9, ptr noundef %1, ptr noundef %2) #10
  ret void
}